; Function Attrs: mustprogress uwtable
define noundef ptr @grpc_ssl_server_credentials_create_options_using_config(i32 noundef %0, ptr noundef %1) local_unnamed_addr #3 personality ptr @__gxx_personality_v0 {
  %3 = alloca %"class.absl::lts_20240722::log_internal::LogMessage", align 8
  %4 = icmp eq ptr %1, null
  br i1 %4, label %5, label %8

5:                                                ; preds = %2
  call void @llvm.lifetime.start.p0(i64 16, ptr nonnull %3) #28
  call void @_ZN4absl12lts_2024072212log_internal10LogMessageC1EPKciNS2_8ErrorTagE(ptr noundef nonnull align 8 dereferenceable(16) %3, ptr noundef nonnull @.str, i32 noundef 372) #29
  invoke void @_ZN4absl12lts_2024072212log_internal10LogMessage19CopyToEncodedBufferILNS2_10StringTypeE0EEEvSt17basic_string_viewIcSt11char_traitsIcEE(ptr noundef nonnull align 8 dereferenceable(16) %3, i64 36, ptr nonnull @.str.21)
          to label %_ZN4absl12lts_2024072212log_internal10LogMessagelsILi37EEERS2_RAT__Kc.exit unwind label %6

_ZN4absl12lts_2024072212log_internal10LogMessagelsILi37EEERS2_RAT__Kc.exit: ; preds = %5
  call void @_ZN4absl12lts_2024072212log_internal10LogMessageD1Ev(ptr noundef nonnull align 8 dereferenceable(16) %3) #30
  call void @llvm.lifetime.end.p0(i64 16, ptr nonnull %3) #28
  br label %11

6:                                                ; preds = %5
  %7 = landingpad { ptr, i32 }
          cleanup
  call void @_ZN4absl12lts_2024072212log_internal10LogMessageD1Ev(ptr noundef nonnull align 8 dereferenceable(16) %3) #30
  call void @llvm.lifetime.end.p0(i64 16, ptr nonnull %3) #28
  resume { ptr, i32 } %7

8:                                                ; preds = %2
  %9 = tail call ptr @gpr_zalloc(i64 noundef 24)
  store i32 %0, ptr %9, align 8, !tbaa !116
  %10 = getelementptr inbounds nuw i8, ptr %9, i64 8
  store ptr %1, ptr %10, align 8, !tbaa !123
  br label %11

11:                                               ; preds = %8, %_ZN4absl12lts_2024072212log_internal10LogMessagelsILi37EEERS2_RAT__Kc.exit
  %.0 = phi ptr [ null, %_ZN4absl12lts_2024072212log_internal10LogMessagelsILi37EEERS2_RAT__Kc.exit ], [ %9, %8 ]
  ret ptr %.0
}